target datalayout = "e-m:e-p270:32:32-p271:32:32-p272:64:64-i64:64-i128:128-f80:128-n8:16:32:64-S128"
target triple = "x86_64-pc-linux-gnu"

%struct._php_random_algo = type { i64, ptr, ptr, ptr, ptr }

; Function Attrs: nounwind uwtable
define ptr @php_random_status_alloc(ptr noundef %0, i1 noundef zeroext %1) #0 {
  %3 = alloca ptr, align 8
  %4 = alloca i8, align 1
  store ptr %0, ptr %3, align 8
  %5 = zext i1 %1 to i8
  store i8 %5, ptr %4, align 1
  %6 = load ptr, ptr %3, align 8
  %7 = getelementptr inbounds %struct._php_random_algo, ptr %6, i32 0, i32 0
  %8 = load i64, ptr %7, align 8
  %9 = icmp ugt i64 %8, 0
  br i1 %9, label %10, label %25

10:                                               ; preds = %2
  %11 = load i8, ptr %4, align 1
  %12 = trunc i8 %11 to i1
  br i1 %12, label %13, label %18

13:                                               ; preds = %10
  %14 = load ptr, ptr %3, align 8
  %15 = getelementptr inbounds %struct._php_random_algo, ptr %14, i32 0, i32 0
  %16 = load i64, ptr %15, align 8
  %17 = call noalias ptr @__zend_calloc(i64 noundef 1, i64 noundef %16) #9
  br label %23

18:                                               ; preds = %10
  %19 = load ptr, ptr %3, align 8
  %20 = getelementptr inbounds %struct._php_random_algo, ptr %19, i32 0, i32 0
  %21 = load i64, ptr %20, align 8
  %22 = call noalias ptr @_ecalloc(i64 noundef 1, i64 noundef %21) #9
  br label %23

23:                                               ; preds = %18, %13
  %24 = phi ptr [ %17, %13 ], [ %22, %18 ]
  br label %26

25:                                               ; preds = %2
  br label %26

26:                                               ; preds = %25, %23
  %27 = phi ptr [ %24, %23 ], [ null, %25 ]
  ret ptr %27
}