; Function Attrs: nounwind uwtable
define noalias ptr @php_random_status_alloc(ptr nocapture noundef readonly %0, i1 noundef zeroext %1) local_unnamed_addr #0 {
  %3 = load i64, ptr %0, align 8
  %.not = icmp eq i64 %3, 0
  br i1 %.not, label %9, label %4

4:                                                ; preds = %2
  br i1 %1, label %5, label %7

5:                                                ; preds = %4
  %6 = tail call noalias ptr @__zend_calloc(i64 noundef 1, i64 noundef %3) #14
  br label %9

7:                                                ; preds = %4
  %8 = tail call noalias ptr @_ecalloc(i64 noundef 1, i64 noundef %3) #14
  br label %9

9:                                                ; preds = %2, %5, %7
  %10 = phi ptr [ %6, %5 ], [ %8, %7 ], [ null, %2 ]
  ret ptr %10
}